target datalayout = "e-m:e-p270:32:32-p271:32:32-p272:64:64-i64:64-i128:128-f80:128-n8:16:32:64-S128"
target triple = "x86_64-pc-linux-gnu"

%class.ShenandoahRefProcThreadLocal = type { ptr, ptr, [5 x i64], [5 x i64], [5 x i64] }
%class.ShenandoahReferenceProcessor = type { %class.ReferenceDiscoverer, ptr, ptr, ptr, ptr, i32, %class.ReferenceProcessorStats }
%class.ReferenceDiscoverer = type { ptr }
%class.ReferenceProcessorStats = type { i64, i64, i64, i64 }

@_ZN8Universe14_collectedHeapE = external global ptr, align 8

; Function Attrs: mustprogress nounwind uwtable
define linkonce_odr hidden noundef ptr @_ZN8Universe4heapEv() #1 comdat align 2 {
  %1 = load ptr, ptr @_ZN8Universe14_collectedHeapE, align 8
  ret ptr %1
}

; Function Attrs: mustprogress nounwind uwtable
define linkonce_odr hidden noundef ptr @_ZN13CollectedHeap10named_heapI14ShenandoahHeapEEPT_NS_4NameE(i32 noundef %0) #1 comdat align 2 {
  %2 = alloca i32, align 4
  %3 = alloca ptr, align 8
  store i32 %0, ptr %2, align 4
  %4 = call noundef ptr @_ZN8Universe4heapEv()
  store ptr %4, ptr %3, align 8
  %5 = load ptr, ptr %3, align 8
  ret ptr %5
}

; Function Attrs: mustprogress nounwind uwtable
define hidden void @_ZN28ShenandoahRefProcThreadLocal5resetEv(ptr noundef nonnull align 8 dereferenceable(136) %0) #1 align 2 {
  %2 = alloca ptr, align 8
  %3 = alloca i32, align 4
  store ptr %0, ptr %2, align 8
  %4 = load ptr, ptr %2, align 8
  %5 = getelementptr inbounds %class.ShenandoahRefProcThreadLocal, ptr %4, i32 0, i32 0
  store ptr null, ptr %5, align 8
  %6 = getelementptr inbounds %class.ShenandoahRefProcThreadLocal, ptr %4, i32 0, i32 1
  store ptr null, ptr %6, align 8
  store i32 0, ptr %3, align 4
  br label %7

7:                                                ; preds = %24, %1
  %8 = load i32, ptr %3, align 4
  %9 = zext i32 %8 to i64
  %10 = icmp ult i64 %9, 5
  br i1 %10, label %11, label %27

11:                                               ; preds = %7
  %12 = getelementptr inbounds %class.ShenandoahRefProcThreadLocal, ptr %4, i32 0, i32 2
  %13 = load i32, ptr %3, align 4
  %14 = zext i32 %13 to i64
  %15 = getelementptr inbounds [5 x i64], ptr %12, i64 0, i64 %14
  store i64 0, ptr %15, align 8
  %16 = getelementptr inbounds %class.ShenandoahRefProcThreadLocal, ptr %4, i32 0, i32 3
  %17 = load i32, ptr %3, align 4
  %18 = zext i32 %17 to i64
  %19 = getelementptr inbounds [5 x i64], ptr %16, i64 0, i64 %18
  store i64 0, ptr %19, align 8
  %20 = getelementptr inbounds %class.ShenandoahRefProcThreadLocal, ptr %4, i32 0, i32 4
  %21 = load i32, ptr %3, align 4
  %22 = zext i32 %21 to i64
  %23 = getelementptr inbounds [5 x i64], ptr %20, i64 0, i64 %22
  store i64 0, ptr %23, align 8
  br label %24

24:                                               ; preds = %11
  %25 = load i32, ptr %3, align 4
  %26 = add i32 %25, 1
  store i32 %26, ptr %3, align 4
  br label %7, !llvm.loop !6

27:                                               ; preds = %7
  ret void
}

; Function Attrs: mustprogress nounwind uwtable
define linkonce_odr hidden noundef ptr @_ZN14ShenandoahHeap4heapEv() #1 comdat align 2 {
  %1 = call noundef ptr @_ZN13CollectedHeap10named_heapI14ShenandoahHeapEEPT_NS_4NameE(i32 noundef 6)
  ret ptr %1
}

; Function Attrs: mustprogress nounwind uwtable
define hidden void @_ZN28ShenandoahReferenceProcessor19reset_thread_localsEv(ptr noundef nonnull align 8 dereferenceable(80) %0) #1 align 2 {
  %2 = alloca ptr, align 8
  %3 = alloca i32, align 4
  %4 = alloca i32, align 4
  store ptr %0, ptr %2, align 8
  %5 = load ptr, ptr %2, align 8
  %6 = call noundef ptr @_ZN14ShenandoahHeap4heapEv()
  %7 = call noundef i32 @_ZN14ShenandoahHeap11max_workersEv(ptr noundef nonnull align 8 dereferenceable(2657) %6)
  store i32 %7, ptr %3, align 4
  store i32 0, ptr %4, align 4
  br label %8

8:                                                ; preds = %18, %1
  %9 = load i32, ptr %4, align 4
  %10 = load i32, ptr %3, align 4
  %11 = icmp ult i32 %9, %10
  br i1 %11, label %12, label %21

12:                                               ; preds = %8
  %13 = getelementptr inbounds %class.ShenandoahReferenceProcessor, ptr %5, i32 0, i32 2
  %14 = load ptr, ptr %13, align 8
  %15 = load i32, ptr %4, align 4
  %16 = zext i32 %15 to i64
  %17 = getelementptr inbounds %class.ShenandoahRefProcThreadLocal, ptr %14, i64 %16
  call void @_ZN28ShenandoahRefProcThreadLocal5resetEv(ptr noundef nonnull align 8 dereferenceable(136) %17)
  br label %18

18:                                               ; preds = %12
  %19 = load i32, ptr %4, align 4
  %20 = add i32 %19, 1
  store i32 %20, ptr %4, align 4
  br label %8, !llvm.loop !9

21:                                               ; preds = %8
  ret void
}