; Function Attrs: mustprogress nounwind uwtable
define hidden void @_ZN28ShenandoahReferenceProcessor19reset_thread_localsEv(ptr nocapture noundef nonnull readonly align 8 dereferenceable(80) %0) local_unnamed_addr #5 align 2 {
  %2 = load ptr, ptr @_ZN8Universe14_collectedHeapE, align 8
  %3 = tail call noundef i32 @_ZN14ShenandoahHeap11max_workersEv(ptr noundef nonnull align 8 dereferenceable(2657) %2) #14
  %.not = icmp eq i32 %3, 0
  br i1 %.not, label %._crit_edge, label %.lr.ph

.lr.ph:                                           ; preds = %1
  %4 = getelementptr inbounds i8, ptr %0, i64 16
  %wide.trip.count = zext i32 %3 to i64
  br label %5

5:                                                ; preds = %.lr.ph, %5
  %indvars.iv = phi i64 [ 0, %.lr.ph ], [ %indvars.iv.next, %5 ]
  %6 = load ptr, ptr %4, align 8
  %7 = getelementptr inbounds %class.ShenandoahRefProcThreadLocal, ptr %6, i64 %indvars.iv
  tail call void @llvm.memset.p0.i64(ptr noundef nonnull align 8 dereferenceable(136) %7, i8 0, i64 136, i1 false)
  %indvars.iv.next = add nuw nsw i64 %indvars.iv, 1
  %exitcond.not = icmp eq i64 %indvars.iv.next, %wide.trip.count
  br i1 %exitcond.not, label %._crit_edge, label %5, !llvm.loop !8

._crit_edge:                                      ; preds = %5, %1
  ret void
}